target datalayout = "e-m:e-p270:32:32-p271:32:32-p272:64:64-i64:64-i128:128-f80:128-n8:16:32:64-S128"
target triple = "x86_64-pc-linux-gnu"

%"class.draco::ObjDecoder" = type { i8, i32, i32, i32, i32, i32, i32, i32, i32, i32, i32, i32, i32, i8, i32, %"class.std::__cxx11::basic_string", %"class.std::__cxx11::basic_string", %"class.std::unordered_map", %"class.std::unordered_map", i8, i8, i8, ptr, %"class.draco::DecoderBuffer", ptr, ptr }
%"class.std::__cxx11::basic_string" = type { %"struct.std::__cxx11::basic_string<char>::_Alloc_hider", i64, %union.anon }
%"struct.std::__cxx11::basic_string<char>::_Alloc_hider" = type { ptr }
%union.anon = type { i64, [8 x i8] }
%"class.std::unordered_map" = type { %"class.std::_Hashtable" }
%"class.std::_Hashtable" = type { ptr, i64, %"struct.std::__detail::_Hash_node_base", i64, %"struct.std::__detail::_Prime_rehash_policy", ptr }
%"struct.std::__detail::_Hash_node_base" = type { ptr }
%"struct.std::__detail::_Prime_rehash_policy" = type { float, i64 }
%"class.draco::DecoderBuffer" = type <{ ptr, i64, i64, %"class.draco::DecoderBuffer::BitDecoder", i8, i8, i16, [4 x i8] }>
%"class.draco::DecoderBuffer::BitDecoder" = type { ptr, ptr, i64 }
%"struct.std::array.73" = type { [3 x i32] }

@.str.16 = private unnamed_addr constant [3 x i8] c" \09\00", align 1

; Function Attrs: mustprogress nounwind uwtable
define linkonce_odr dso_local noundef nonnull align 4 dereferenceable(4) ptr @_ZNSt14__array_traitsIiLm3EE6_S_refERA3_Kim(ptr noundef nonnull align 4 dereferenceable(12) %0, i64 noundef %1) #5 comdat align 2 {
  %3 = alloca ptr, align 8
  %4 = alloca i64, align 8
  store ptr %0, ptr %3, align 8, !tbaa !83
  store i64 %1, ptr %4, align 8, !tbaa !106
  %5 = load ptr, ptr %3, align 8, !tbaa !83
  %6 = load i64, ptr %4, align 8, !tbaa !106
  %7 = getelementptr inbounds nuw [3 x i32], ptr %5, i64 0, i64 %6
  ret ptr %7
}

; Function Attrs: mustprogress nounwind uwtable
define linkonce_odr dso_local void @_ZN5draco13DecoderBuffer7AdvanceEl(ptr noundef nonnull align 8 dereferenceable(52) %0, i64 noundef %1) #5 comdat align 2 {
  %3 = alloca ptr, align 8
  %4 = alloca i64, align 8
  store ptr %0, ptr %3, align 8, !tbaa !98
  store i64 %1, ptr %4, align 8, !tbaa !106
  %5 = load ptr, ptr %3, align 8
  %6 = load i64, ptr %4, align 8, !tbaa !106
  %7 = getelementptr inbounds nuw %"class.draco::DecoderBuffer", ptr %5, i32 0, i32 2
  %8 = load i64, ptr %7, align 8, !tbaa !101
  %9 = add nsw i64 %8, %6
  store i64 %9, ptr %7, align 8, !tbaa !101
  ret void
}

; Function Attrs: mustprogress nounwind uwtable
define linkonce_odr dso_local noundef zeroext i1 @_ZN5draco13DecoderBuffer4PeekIcEEbPT_(ptr noundef nonnull align 8 dereferenceable(52) %0, ptr noundef %1) #5 comdat align 2 {
  %3 = alloca i1, align 1
  %4 = alloca ptr, align 8
  %5 = alloca ptr, align 8
  %6 = alloca i64, align 8
  %7 = alloca i32, align 4
  store ptr %0, ptr %4, align 8, !tbaa !98
  store ptr %1, ptr %5, align 8, !tbaa !61
  %8 = load ptr, ptr %4, align 8
  call void @llvm.lifetime.start.p0(i64 8, ptr %6) #3
  store i64 1, ptr %6, align 8, !tbaa !106
  %9 = getelementptr inbounds nuw %"class.draco::DecoderBuffer", ptr %8, i32 0, i32 1
  %10 = load i64, ptr %9, align 8, !tbaa !102
  %11 = getelementptr inbounds nuw %"class.draco::DecoderBuffer", ptr %8, i32 0, i32 2
  %12 = load i64, ptr %11, align 8, !tbaa !101
  %13 = add i64 %12, 1
  %14 = icmp slt i64 %10, %13
  br i1 %14, label %15, label %16

15:                                               ; preds = %2
  store i1 false, ptr %3, align 1
  store i32 1, ptr %7, align 4
  br label %23

16:                                               ; preds = %2
  %17 = load ptr, ptr %5, align 8, !tbaa !61
  %18 = getelementptr inbounds nuw %"class.draco::DecoderBuffer", ptr %8, i32 0, i32 0
  %19 = load ptr, ptr %18, align 8, !tbaa !100
  %20 = getelementptr inbounds nuw %"class.draco::DecoderBuffer", ptr %8, i32 0, i32 2
  %21 = load i64, ptr %20, align 8, !tbaa !101
  %22 = getelementptr inbounds i8, ptr %19, i64 %21
  call void @llvm.memcpy.p0.p0.i64(ptr align 1 %17, ptr align 1 %22, i64 1, i1 false)
  store i1 true, ptr %3, align 1
  store i32 1, ptr %7, align 4
  br label %23

23:                                               ; preds = %16, %15
  call void @llvm.lifetime.end.p0(i64 8, ptr %6) #3
  %24 = load i1, ptr %3, align 1
  ret i1 %24
}

; Function Attrs: mustprogress nounwind uwtable
define linkonce_odr dso_local noundef nonnull align 4 dereferenceable(4) ptr @_ZNSt5arrayIiLm3EEixEm(ptr noundef nonnull align 4 dereferenceable(12) %0, i64 noundef %1) #5 comdat align 2 {
  %3 = alloca ptr, align 8
  %4 = alloca i64, align 8
  store ptr %0, ptr %3, align 8, !tbaa !181
  store i64 %1, ptr %4, align 8, !tbaa !106
  %5 = load ptr, ptr %3, align 8
  %6 = getelementptr inbounds nuw %"struct.std::array.73", ptr %5, i32 0, i32 0
  %7 = load i64, ptr %4, align 8, !tbaa !106
  %8 = call noundef nonnull align 4 dereferenceable(4) ptr @_ZNSt14__array_traitsIiLm3EE6_S_refERA3_Kim(ptr noundef nonnull align 4 dereferenceable(12) %6, i64 noundef %7) #3
  ret ptr %8
}

; Function Attrs: mustprogress nounwind uwtable
define linkonce_odr dso_local noundef ptr @_ZN5draco10ObjDecoder6bufferEv(ptr noundef nonnull align 8 dereferenceable(328) %0) #5 comdat align 2 {
  %2 = alloca ptr, align 8
  store ptr %0, ptr %2, align 8, !tbaa !4
  %3 = load ptr, ptr %2, align 8
  %4 = getelementptr inbounds nuw %"class.draco::ObjDecoder", ptr %3, i32 0, i32 23
  ret ptr %4
}

; Function Attrs: mustprogress uwtable
define dso_local noundef zeroext i1 @_ZN5draco10ObjDecoder18ParseVertexIndicesEPSt5arrayIiLm3EE(ptr noundef nonnull align 8 dereferenceable(328) %0, ptr noundef %1) #4 align 2 {
  %3 = alloca i1, align 1
  %4 = alloca ptr, align 8
  %5 = alloca ptr, align 8
  %6 = alloca i8, align 1
  %7 = alloca i32, align 4
  store ptr %0, ptr %4, align 8, !tbaa !4
  store ptr %1, ptr %5, align 8, !tbaa !181
  %8 = load ptr, ptr %4, align 8
  %9 = call noundef ptr @_ZN5draco10ObjDecoder6bufferEv(ptr noundef nonnull align 8 dereferenceable(328) %8)
  call void @_ZN5draco6parser14SkipCharactersEPNS_13DecoderBufferEPKc(ptr noundef %9, ptr noundef @.str.16)
  %10 = call noundef ptr @_ZN5draco10ObjDecoder6bufferEv(ptr noundef nonnull align 8 dereferenceable(328) %8)
  %11 = load ptr, ptr %5, align 8, !tbaa !181
  %12 = call noundef nonnull align 4 dereferenceable(4) ptr @_ZNSt5arrayIiLm3EEixEm(ptr noundef nonnull align 4 dereferenceable(12) %11, i64 noundef 0) #3
  %13 = call noundef zeroext i1 @_ZN5draco6parser14ParseSignedIntEPNS_13DecoderBufferEPi(ptr noundef %10, ptr noundef %12)
  br i1 %13, label %14, label %19

14:                                               ; preds = %2
  %15 = load ptr, ptr %5, align 8, !tbaa !181
  %16 = call noundef nonnull align 4 dereferenceable(4) ptr @_ZNSt5arrayIiLm3EEixEm(ptr noundef nonnull align 4 dereferenceable(12) %15, i64 noundef 0) #3
  %17 = load i32, ptr %16, align 4, !tbaa !76
  %18 = icmp eq i32 %17, 0
  br i1 %18, label %19, label %20

19:                                               ; preds = %14, %2
  store i1 false, ptr %3, align 1
  br label %77

20:                                               ; preds = %14
  %21 = load ptr, ptr %5, align 8, !tbaa !181
  %22 = call noundef nonnull align 4 dereferenceable(4) ptr @_ZNSt5arrayIiLm3EEixEm(ptr noundef nonnull align 4 dereferenceable(12) %21, i64 noundef 2) #3
  store i32 0, ptr %22, align 4, !tbaa !76
  %23 = load ptr, ptr %5, align 8, !tbaa !181
  %24 = call noundef nonnull align 4 dereferenceable(4) ptr @_ZNSt5arrayIiLm3EEixEm(ptr noundef nonnull align 4 dereferenceable(12) %23, i64 noundef 1) #3
  store i32 0, ptr %24, align 4, !tbaa !76
  call void @llvm.lifetime.start.p0(i64 1, ptr %6) #3
  %25 = call noundef ptr @_ZN5draco10ObjDecoder6bufferEv(ptr noundef nonnull align 8 dereferenceable(328) %8)
  %26 = call noundef zeroext i1 @_ZN5draco13DecoderBuffer4PeekIcEEbPT_(ptr noundef nonnull align 8 dereferenceable(52) %25, ptr noundef %6)
  br i1 %26, label %28, label %27

27:                                               ; preds = %20
  store i1 true, ptr %3, align 1
  store i32 1, ptr %7, align 4
  br label %76

28:                                               ; preds = %20
  %29 = load i8, ptr %6, align 1, !tbaa !84
  %30 = sext i8 %29 to i32
  %31 = icmp ne i32 %30, 47
  br i1 %31, label %32, label %33

32:                                               ; preds = %28
  store i1 true, ptr %3, align 1
  store i32 1, ptr %7, align 4
  br label %76

33:                                               ; preds = %28
  %34 = call noundef ptr @_ZN5draco10ObjDecoder6bufferEv(ptr noundef nonnull align 8 dereferenceable(328) %8)
  call void @_ZN5draco13DecoderBuffer7AdvanceEl(ptr noundef nonnull align 8 dereferenceable(52) %34, i64 noundef 1)
  %35 = call noundef ptr @_ZN5draco10ObjDecoder6bufferEv(ptr noundef nonnull align 8 dereferenceable(328) %8)
  %36 = call noundef zeroext i1 @_ZN5draco13DecoderBuffer4PeekIcEEbPT_(ptr noundef nonnull align 8 dereferenceable(52) %35, ptr noundef %6)
  br i1 %36, label %38, label %37

37:                                               ; preds = %33
  store i1 false, ptr %3, align 1
  store i32 1, ptr %7, align 4
  br label %76

38:                                               ; preds = %33
  %39 = load i8, ptr %6, align 1, !tbaa !84
  %40 = sext i8 %39 to i32
  %41 = icmp ne i32 %40, 47
  br i1 %41, label %42, label %54

42:                                               ; preds = %38
  %43 = call noundef ptr @_ZN5draco10ObjDecoder6bufferEv(ptr noundef nonnull align 8 dereferenceable(328) %8)
  %44 = load ptr, ptr %5, align 8, !tbaa !181
  %45 = call noundef nonnull align 4 dereferenceable(4) ptr @_ZNSt5arrayIiLm3EEixEm(ptr noundef nonnull align 4 dereferenceable(12) %44, i64 noundef 1) #3
  %46 = call noundef zeroext i1 @_ZN5draco6parser14ParseSignedIntEPNS_13DecoderBufferEPi(ptr noundef %43, ptr noundef %45)
  br i1 %46, label %47, label %52

47:                                               ; preds = %42
  %48 = load ptr, ptr %5, align 8, !tbaa !181
  %49 = call noundef nonnull align 4 dereferenceable(4) ptr @_ZNSt5arrayIiLm3EEixEm(ptr noundef nonnull align 4 dereferenceable(12) %48, i64 noundef 1) #3
  %50 = load i32, ptr %49, align 4, !tbaa !76
  %51 = icmp eq i32 %50, 0
  br i1 %51, label %52, label %53

52:                                               ; preds = %47, %42
  store i1 false, ptr %3, align 1
  store i32 1, ptr %7, align 4
  br label %76

53:                                               ; preds = %47
  br label %54

54:                                               ; preds = %53, %38
  %55 = call noundef ptr @_ZN5draco10ObjDecoder6bufferEv(ptr noundef nonnull align 8 dereferenceable(328) %8)
  %56 = call noundef zeroext i1 @_ZN5draco13DecoderBuffer4PeekIcEEbPT_(ptr noundef nonnull align 8 dereferenceable(52) %55, ptr noundef %6)
  br i1 %56, label %58, label %57

57:                                               ; preds = %54
  store i1 true, ptr %3, align 1
  store i32 1, ptr %7, align 4
  br label %76

58:                                               ; preds = %54
  %59 = load i8, ptr %6, align 1, !tbaa !84
  %60 = sext i8 %59 to i32
  %61 = icmp eq i32 %60, 47
  br i1 %61, label %62, label %75

62:                                               ; preds = %58
  %63 = call noundef ptr @_ZN5draco10ObjDecoder6bufferEv(ptr noundef nonnull align 8 dereferenceable(328) %8)
  call void @_ZN5draco13DecoderBuffer7AdvanceEl(ptr noundef nonnull align 8 dereferenceable(52) %63, i64 noundef 1)
  %64 = call noundef ptr @_ZN5draco10ObjDecoder6bufferEv(ptr noundef nonnull align 8 dereferenceable(328) %8)
  %65 = load ptr, ptr %5, align 8, !tbaa !181
  %66 = call noundef nonnull align 4 dereferenceable(4) ptr @_ZNSt5arrayIiLm3EEixEm(ptr noundef nonnull align 4 dereferenceable(12) %65, i64 noundef 2) #3
  %67 = call noundef zeroext i1 @_ZN5draco6parser14ParseSignedIntEPNS_13DecoderBufferEPi(ptr noundef %64, ptr noundef %66)
  br i1 %67, label %68, label %73

68:                                               ; preds = %62
  %69 = load ptr, ptr %5, align 8, !tbaa !181
  %70 = call noundef nonnull align 4 dereferenceable(4) ptr @_ZNSt5arrayIiLm3EEixEm(ptr noundef nonnull align 4 dereferenceable(12) %69, i64 noundef 2) #3
  %71 = load i32, ptr %70, align 4, !tbaa !76
  %72 = icmp eq i32 %71, 0
  br i1 %72, label %73, label %74

73:                                               ; preds = %68, %62
  store i1 false, ptr %3, align 1
  store i32 1, ptr %7, align 4
  br label %76

74:                                               ; preds = %68
  br label %75

75:                                               ; preds = %74, %58
  store i1 true, ptr %3, align 1
  store i32 1, ptr %7, align 4
  br label %76

76:                                               ; preds = %75, %73, %57, %52, %37, %32, %27
  call void @llvm.lifetime.end.p0(i64 1, ptr %6) #3
  br label %77

77:                                               ; preds = %76, %19
  %78 = load i1, ptr %3, align 1
  ret i1 %78
}