; Function Attrs: mustprogress uwtable
define dso_local noundef zeroext i1 @_ZN5draco10ObjDecoder18ParseVertexIndicesEPSt5arrayIiLm3EE(ptr noundef nonnull align 8 dereferenceable(328) %0, ptr noundef %1) local_unnamed_addr #3 align 2 {
  %3 = getelementptr inbounds nuw i8, ptr %0, i64 256
  tail call void @_ZN5draco6parser14SkipCharactersEPNS_13DecoderBufferEPKc(ptr noundef nonnull %3, ptr noundef nonnull @.str.16)
  %4 = tail call noundef zeroext i1 @_ZN5draco6parser14ParseSignedIntEPNS_13DecoderBufferEPi(ptr noundef nonnull %3, ptr noundef nonnull %1)
  br i1 %4, label %5, label %_ZN5draco13DecoderBuffer4PeekIcEEbPT_.exit11

5:                                                ; preds = %2
  %6 = load i32, ptr %1, align 4, !tbaa !91
  %7 = icmp eq i32 %6, 0
  br i1 %7, label %_ZN5draco13DecoderBuffer4PeekIcEEbPT_.exit11, label %8

8:                                                ; preds = %5
  %9 = getelementptr inbounds nuw i8, ptr %1, i64 8
  store i32 0, ptr %9, align 4, !tbaa !91
  %10 = getelementptr inbounds nuw i8, ptr %1, i64 4
  store i32 0, ptr %10, align 4, !tbaa !91
  %11 = getelementptr inbounds nuw i8, ptr %0, i64 264
  %12 = load i64, ptr %11, align 8, !tbaa !149
  %13 = getelementptr inbounds nuw i8, ptr %0, i64 272
  %14 = load i64, ptr %13, align 8, !tbaa !136
  %15 = add i64 %14, 1
  %.not24 = icmp slt i64 %12, %15
  br i1 %.not24, label %_ZN5draco13DecoderBuffer4PeekIcEEbPT_.exit11, label %_ZN5draco13DecoderBuffer4PeekIcEEbPT_.exit

_ZN5draco13DecoderBuffer4PeekIcEEbPT_.exit:       ; preds = %8
  %16 = load ptr, ptr %3, align 8, !tbaa !148
  %17 = getelementptr inbounds i8, ptr %16, i64 %14
  %18 = load i8, ptr %17, align 1
  %.not = icmp eq i8 %18, 47
  br i1 %.not, label %19, label %_ZN5draco13DecoderBuffer4PeekIcEEbPT_.exit11

19:                                               ; preds = %_ZN5draco13DecoderBuffer4PeekIcEEbPT_.exit
  store i64 %15, ptr %13, align 8, !tbaa !136
  %20 = add i64 %14, 2
  %.not25 = icmp slt i64 %12, %20
  br i1 %.not25, label %_ZN5draco13DecoderBuffer4PeekIcEEbPT_.exit11, label %21

21:                                               ; preds = %19
  %22 = getelementptr inbounds i8, ptr %16, i64 %15
  %23 = load i8, ptr %22, align 1
  %.not10 = icmp eq i8 %23, 47
  br i1 %.not10, label %29, label %24

24:                                               ; preds = %21
  %25 = tail call noundef zeroext i1 @_ZN5draco6parser14ParseSignedIntEPNS_13DecoderBufferEPi(ptr noundef nonnull %3, ptr noundef nonnull %10)
  br i1 %25, label %26, label %_ZN5draco13DecoderBuffer4PeekIcEEbPT_.exit11

26:                                               ; preds = %24
  %27 = load i32, ptr %10, align 4, !tbaa !91
  %28 = icmp eq i32 %27, 0
  br i1 %28, label %_ZN5draco13DecoderBuffer4PeekIcEEbPT_.exit11, label %._crit_edge

._crit_edge:                                      ; preds = %26
  %.pre = load i64, ptr %11, align 8, !tbaa !149
  %.pre27 = load i64, ptr %13, align 8, !tbaa !136
  br label %29

29:                                               ; preds = %._crit_edge, %21
  %30 = phi i64 [ %.pre27, %._crit_edge ], [ %15, %21 ]
  %31 = phi i64 [ %.pre, %._crit_edge ], [ %12, %21 ]
  %32 = add i64 %30, 1
  %.not26 = icmp slt i64 %31, %32
  br i1 %.not26, label %_ZN5draco13DecoderBuffer4PeekIcEEbPT_.exit11, label %33

33:                                               ; preds = %29
  %34 = load ptr, ptr %3, align 8, !tbaa !148
  %35 = getelementptr inbounds i8, ptr %34, i64 %30
  %36 = load i8, ptr %35, align 1
  %37 = icmp eq i8 %36, 47
  br i1 %37, label %38, label %43

38:                                               ; preds = %33
  store i64 %32, ptr %13, align 8, !tbaa !136
  %39 = tail call noundef zeroext i1 @_ZN5draco6parser14ParseSignedIntEPNS_13DecoderBufferEPi(ptr noundef nonnull %3, ptr noundef nonnull %9)
  br i1 %39, label %40, label %_ZN5draco13DecoderBuffer4PeekIcEEbPT_.exit11

40:                                               ; preds = %38
  %41 = load i32, ptr %9, align 4, !tbaa !91
  %42 = icmp eq i32 %41, 0
  br i1 %42, label %_ZN5draco13DecoderBuffer4PeekIcEEbPT_.exit11, label %43

43:                                               ; preds = %40, %33
  br label %_ZN5draco13DecoderBuffer4PeekIcEEbPT_.exit11

_ZN5draco13DecoderBuffer4PeekIcEEbPT_.exit11:     ; preds = %8, %43, %_ZN5draco13DecoderBuffer4PeekIcEEbPT_.exit, %26, %24, %40, %38, %19, %29, %2, %5
  %.0 = phi i1 [ false, %5 ], [ false, %2 ], [ true, %43 ], [ true, %_ZN5draco13DecoderBuffer4PeekIcEEbPT_.exit ], [ false, %26 ], [ false, %24 ], [ false, %40 ], [ false, %38 ], [ false, %19 ], [ true, %29 ], [ true, %8 ]
  ret i1 %.0
}